target datalayout = "e-m:e-p270:32:32-p271:32:32-p272:64:64-i64:64-i128:128-f80:128-n8:16:32:64-S128"
target triple = "x86_64-pc-linux-gnu"

%struct._packet_info = type { ptr, ptr, i32, i32, %struct.nstime_t, %struct.nstime_t, %struct.nstime_t, i8, ptr, ptr, ptr, ptr, %struct._address, %struct._address, %struct._address, %struct._address, %struct._address, %struct._address, i32, ptr, i8, [3 x i8], %struct.anon, i32, i32, i32, i32, ptr, i8, ptr, ptr, i16, i16, i32, i32, i16, i32, i32, ptr, ptr, ptr, i8, i8, i16, i16, i16, i32, i16, i16, ptr, ptr, ptr, ptr, ptr, i32, i32 }
%struct.nstime_t = type { i64, i32 }
%struct._address = type { i32, i32, ptr, ptr }
%struct.anon = type { i8, [3 x i8] }

@hf_mysql_connattrs_attr = internal global i32 0, align 4
@hf_mysql_connattrs_name_length = internal global i32 0, align 4
@hf_mysql_connattrs_name = internal global i32 0, align 4
@hf_mysql_connattrs_value_length = internal global i32 0, align 4
@hf_mysql_connattrs_value = internal global i32 0, align 4
@ett_connattrs_attr = internal global i32 0, align 4
@.str.1213 = private unnamed_addr constant [6 x i8] c" - %s\00", align 1
@.str.1284 = private unnamed_addr constant [5 x i8] c": %s\00", align 1

; Function Attrs: null_pointer_is_valid sspstrong uwtable
define internal i32 @tvb_get_fle(ptr noundef %0, ptr noundef %1, i32 noundef %2, ptr noundef %3, ptr noundef %4) #0 {
  %6 = alloca i32, align 4
  %7 = alloca ptr, align 8
  %8 = alloca ptr, align 8
  %9 = alloca i32, align 4
  %10 = alloca ptr, align 8
  %11 = alloca ptr, align 8
  %12 = alloca i8, align 1
  %13 = alloca i32, align 4
  %14 = alloca i64, align 8
  %15 = alloca i32, align 4
  store ptr %0, ptr %7, align 8
  store ptr %1, ptr %8, align 8
  store i32 %2, ptr %9, align 4
  store ptr %3, ptr %10, align 8
  store ptr %4, ptr %11, align 8
  call void @llvm.lifetime.start.p0(i64 1, ptr %12) #11
  call void @llvm.lifetime.start.p0(i64 4, ptr %13) #11
  call void @llvm.lifetime.start.p0(i64 8, ptr %14) #11
  %16 = load ptr, ptr %7, align 8
  %17 = load i32, ptr %9, align 4
  %18 = call zeroext i8 @tvb_get_uint8(ptr noundef %16, i32 noundef %17)
  store i8 %18, ptr %12, align 1
  %19 = load ptr, ptr %11, align 8
  %20 = icmp ne ptr %19, null
  br i1 %20, label %21, label %23

21:                                               ; preds = %5
  %22 = load ptr, ptr %11, align 8
  store i8 0, ptr %22, align 1
  br label %23

23:                                               ; preds = %21, %5
  %24 = load i8, ptr %12, align 1
  %25 = zext i8 %24 to i32
  switch i32 %25, label %57 [
    i32 251, label %26
    i32 252, label %37
    i32 253, label %44
    i32 254, label %51
  ]

26:                                               ; preds = %23
  %27 = load ptr, ptr %10, align 8
  %28 = icmp ne ptr %27, null
  br i1 %28, label %29, label %31

29:                                               ; preds = %26
  %30 = load ptr, ptr %10, align 8
  store i64 0, ptr %30, align 8
  br label %31

31:                                               ; preds = %29, %26
  %32 = load ptr, ptr %11, align 8
  %33 = icmp ne ptr %32, null
  br i1 %33, label %34, label %36

34:                                               ; preds = %31
  %35 = load ptr, ptr %11, align 8
  store i8 1, ptr %35, align 1
  br label %36

36:                                               ; preds = %34, %31
  store i32 1, ptr %6, align 4
  store i32 1, ptr %15, align 4
  br label %70

37:                                               ; preds = %23
  store i32 3, ptr %13, align 4
  %38 = load i32, ptr %9, align 4
  %39 = add i32 %38, 1
  store i32 %39, ptr %9, align 4
  %40 = load ptr, ptr %7, align 8
  %41 = load i32, ptr %9, align 4
  %42 = call zeroext i16 @tvb_get_uint16(ptr noundef %40, i32 noundef %41, i32 noundef -2147483648)
  %43 = zext i16 %42 to i64
  store i64 %43, ptr %14, align 8
  br label %62

44:                                               ; preds = %23
  store i32 4, ptr %13, align 4
  %45 = load i32, ptr %9, align 4
  %46 = add i32 %45, 1
  store i32 %46, ptr %9, align 4
  %47 = load ptr, ptr %7, align 8
  %48 = load i32, ptr %9, align 4
  %49 = call i32 @tvb_get_uint24(ptr noundef %47, i32 noundef %48, i32 noundef -2147483648)
  %50 = zext i32 %49 to i64
  store i64 %50, ptr %14, align 8
  br label %62

51:                                               ; preds = %23
  store i32 9, ptr %13, align 4
  %52 = load i32, ptr %9, align 4
  %53 = add i32 %52, 1
  store i32 %53, ptr %9, align 4
  %54 = load ptr, ptr %7, align 8
  %55 = load i32, ptr %9, align 4
  %56 = call i64 @tvb_get_uint64(ptr noundef %54, i32 noundef %55, i32 noundef -2147483648)
  store i64 %56, ptr %14, align 8
  br label %62

57:                                               ; preds = %23
  store i32 1, ptr %13, align 4
  %58 = load ptr, ptr %7, align 8
  %59 = load i32, ptr %9, align 4
  %60 = call zeroext i8 @tvb_get_uint8(ptr noundef %58, i32 noundef %59)
  %61 = zext i8 %60 to i64
  store i64 %61, ptr %14, align 8
  br label %62

62:                                               ; preds = %57, %51, %44, %37
  %63 = load ptr, ptr %10, align 8
  %64 = icmp ne ptr %63, null
  br i1 %64, label %65, label %68

65:                                               ; preds = %62
  %66 = load i64, ptr %14, align 8
  %67 = load ptr, ptr %10, align 8
  store i64 %66, ptr %67, align 8
  br label %68

68:                                               ; preds = %65, %62
  %69 = load i32, ptr %13, align 4
  store i32 %69, ptr %6, align 4
  store i32 1, ptr %15, align 4
  br label %70

70:                                               ; preds = %68, %36
  call void @llvm.lifetime.end.p0(i64 8, ptr %14) #11
  call void @llvm.lifetime.end.p0(i64 4, ptr %13) #11
  call void @llvm.lifetime.end.p0(i64 1, ptr %12) #11
  %71 = load i32, ptr %6, align 4
  ret i32 %71
}

; Function Attrs: null_pointer_is_valid sspstrong uwtable
define internal i32 @add_connattrs_entry_to_tree(ptr noundef %0, ptr noundef %1, ptr noundef %2, i32 noundef %3) #0 {
  %5 = alloca ptr, align 8
  %6 = alloca ptr, align 8
  %7 = alloca ptr, align 8
  %8 = alloca i32, align 4
  %9 = alloca i64, align 8
  %10 = alloca i32, align 4
  %11 = alloca i32, align 4
  %12 = alloca ptr, align 8
  %13 = alloca ptr, align 8
  %14 = alloca ptr, align 8
  store ptr %0, ptr %5, align 8
  store ptr %1, ptr %6, align 8
  store ptr %2, ptr %7, align 8
  store i32 %3, ptr %8, align 4
  call void @llvm.lifetime.start.p0(i64 8, ptr %9) #11
  call void @llvm.lifetime.start.p0(i64 4, ptr %10) #11
  %15 = load i32, ptr %8, align 4
  store i32 %15, ptr %10, align 4
  call void @llvm.lifetime.start.p0(i64 4, ptr %11) #11
  call void @llvm.lifetime.start.p0(i64 8, ptr %12) #11
  call void @llvm.lifetime.start.p0(i64 8, ptr %13) #11
  call void @llvm.lifetime.start.p0(i64 8, ptr %14) #11
  %16 = load ptr, ptr %7, align 8
  %17 = load i32, ptr @hf_mysql_connattrs_attr, align 4
  %18 = load ptr, ptr %5, align 8
  %19 = load i32, ptr %8, align 4
  %20 = call ptr @proto_tree_add_item(ptr noundef %16, i32 noundef %17, ptr noundef %18, i32 noundef %19, i32 noundef 1, i32 noundef 0)
  store ptr %20, ptr %12, align 8
  %21 = load ptr, ptr %12, align 8
  %22 = load i32, ptr @ett_connattrs_attr, align 4
  %23 = call ptr @proto_item_add_subtree(ptr noundef %21, i32 noundef %22)
  store ptr %23, ptr %13, align 8
  %24 = load ptr, ptr %5, align 8
  %25 = load ptr, ptr %13, align 8
  %26 = load i32, ptr %8, align 4
  %27 = call i32 @tvb_get_fle(ptr noundef %24, ptr noundef %25, i32 noundef %26, ptr noundef %9, ptr noundef null)
  store i32 %27, ptr %11, align 4
  %28 = load ptr, ptr %13, align 8
  %29 = load i32, ptr @hf_mysql_connattrs_name_length, align 4
  %30 = load ptr, ptr %5, align 8
  %31 = load i32, ptr %8, align 4
  %32 = load i32, ptr %11, align 4
  %33 = load i64, ptr %9, align 8
  %34 = call ptr @proto_tree_add_uint64(ptr noundef %28, i32 noundef %29, ptr noundef %30, i32 noundef %31, i32 noundef %32, i64 noundef %33)
  %35 = load i32, ptr %11, align 4
  %36 = load i32, ptr %8, align 4
  %37 = add i32 %36, %35
  store i32 %37, ptr %8, align 4
  %38 = load ptr, ptr %13, align 8
  %39 = load i32, ptr @hf_mysql_connattrs_name, align 4
  %40 = load ptr, ptr %5, align 8
  %41 = load i32, ptr %8, align 4
  %42 = load i64, ptr %9, align 8
  %43 = trunc i64 %42 to i32
  %44 = load ptr, ptr %6, align 8
  %45 = getelementptr inbounds nuw %struct._packet_info, ptr %44, i32 0, i32 51
  %46 = load ptr, ptr %45, align 8
  %47 = call ptr @proto_tree_add_item_ret_string(ptr noundef %38, i32 noundef %39, ptr noundef %40, i32 noundef %41, i32 noundef %43, i32 noundef 0, ptr noundef %46, ptr noundef %14)
  %48 = load ptr, ptr %12, align 8
  %49 = load ptr, ptr %14, align 8
  call void (ptr, ptr, ...) @proto_item_append_text(ptr noundef %48, ptr noundef @.str.1213, ptr noundef %49)
  %50 = load i64, ptr %9, align 8
  %51 = trunc i64 %50 to i32
  %52 = load i32, ptr %8, align 4
  %53 = add i32 %52, %51
  store i32 %53, ptr %8, align 4
  %54 = load ptr, ptr %5, align 8
  %55 = load ptr, ptr %13, align 8
  %56 = load i32, ptr %8, align 4
  %57 = call i32 @tvb_get_fle(ptr noundef %54, ptr noundef %55, i32 noundef %56, ptr noundef %9, ptr noundef null)
  store i32 %57, ptr %11, align 4
  %58 = load ptr, ptr %13, align 8
  %59 = load i32, ptr @hf_mysql_connattrs_value_length, align 4
  %60 = load ptr, ptr %5, align 8
  %61 = load i32, ptr %8, align 4
  %62 = load i32, ptr %11, align 4
  %63 = load i64, ptr %9, align 8
  %64 = call ptr @proto_tree_add_uint64(ptr noundef %58, i32 noundef %59, ptr noundef %60, i32 noundef %61, i32 noundef %62, i64 noundef %63)
  %65 = load i32, ptr %11, align 4
  %66 = load i32, ptr %8, align 4
  %67 = add i32 %66, %65
  store i32 %67, ptr %8, align 4
  %68 = load ptr, ptr %13, align 8
  %69 = load i32, ptr @hf_mysql_connattrs_value, align 4
  %70 = load ptr, ptr %5, align 8
  %71 = load i32, ptr %8, align 4
  %72 = load i64, ptr %9, align 8
  %73 = trunc i64 %72 to i32
  %74 = load ptr, ptr %6, align 8
  %75 = getelementptr inbounds nuw %struct._packet_info, ptr %74, i32 0, i32 51
  %76 = load ptr, ptr %75, align 8
  %77 = call ptr @proto_tree_add_item_ret_string(ptr noundef %68, i32 noundef %69, ptr noundef %70, i32 noundef %71, i32 noundef %73, i32 noundef 0, ptr noundef %76, ptr noundef %14)
  %78 = load ptr, ptr %12, align 8
  %79 = load ptr, ptr %14, align 8
  call void (ptr, ptr, ...) @proto_item_append_text(ptr noundef %78, ptr noundef @.str.1284, ptr noundef %79)
  %80 = load i64, ptr %9, align 8
  %81 = trunc i64 %80 to i32
  %82 = load i32, ptr %8, align 4
  %83 = add i32 %82, %81
  store i32 %83, ptr %8, align 4
  %84 = load ptr, ptr %12, align 8
  %85 = load i32, ptr %8, align 4
  %86 = load i32, ptr %10, align 4
  %87 = sub i32 %85, %86
  call void @proto_item_set_len(ptr noundef %84, i32 noundef %87)
  %88 = load i32, ptr %8, align 4
  %89 = load i32, ptr %10, align 4
  %90 = sub i32 %88, %89
  call void @llvm.lifetime.end.p0(i64 8, ptr %14) #11
  call void @llvm.lifetime.end.p0(i64 8, ptr %13) #11
  call void @llvm.lifetime.end.p0(i64 8, ptr %12) #11
  call void @llvm.lifetime.end.p0(i64 4, ptr %11) #11
  call void @llvm.lifetime.end.p0(i64 4, ptr %10) #11
  call void @llvm.lifetime.end.p0(i64 8, ptr %9) #11
  ret i32 %90
}