; Function Attrs: null_pointer_is_valid sspstrong uwtable
define internal fastcc noundef i32 @add_connattrs_entry_to_tree(ptr noundef %0, ptr noundef readonly captures(none) %1, ptr noundef %2, i32 noundef %3) unnamed_addr #0 {
  %5 = alloca ptr, align 8
  call void @llvm.lifetime.start.p0(i64 8, ptr nonnull %5) #10
  %6 = load i32, ptr @hf_mysql_connattrs_attr, align 4
  %7 = tail call ptr @proto_tree_add_item(ptr noundef %2, i32 noundef %6, ptr noundef %0, i32 noundef %3, i32 noundef 1, i32 noundef 0)
  %8 = load i32, ptr @ett_connattrs_attr, align 4
  %9 = tail call ptr @proto_item_add_subtree(ptr noundef %7, i32 noundef %8)
  %10 = tail call zeroext i8 @tvb_get_uint8(ptr noundef %0, i32 noundef %3)
  switch i8 %10, label %22 [
    i8 -5, label %tvb_get_fle.exit
    i8 -4, label %11
    i8 -3, label %15
    i8 -2, label %19
  ]

11:                                               ; preds = %4
  %12 = add i32 %3, 1
  %13 = tail call zeroext i16 @tvb_get_uint16(ptr noundef %0, i32 noundef %12, i32 noundef -2147483648)
  %14 = zext i16 %13 to i64
  br label %tvb_get_fle.exit

15:                                               ; preds = %4
  %16 = add i32 %3, 1
  %17 = tail call i32 @tvb_get_uint24(ptr noundef %0, i32 noundef %16, i32 noundef -2147483648)
  %18 = zext i32 %17 to i64
  br label %tvb_get_fle.exit

19:                                               ; preds = %4
  %20 = add i32 %3, 1
  %21 = tail call i64 @tvb_get_uint64(ptr noundef %0, i32 noundef %20, i32 noundef -2147483648)
  br label %tvb_get_fle.exit

22:                                               ; preds = %4
  %23 = tail call zeroext i8 @tvb_get_uint8(ptr noundef %0, i32 noundef %3)
  %24 = zext i8 %23 to i64
  br label %tvb_get_fle.exit

tvb_get_fle.exit:                                 ; preds = %11, %15, %19, %22, %4
  %.0 = phi i64 [ 0, %4 ], [ %24, %22 ], [ %21, %19 ], [ %18, %15 ], [ %14, %11 ]
  %.025.i = phi i32 [ 1, %4 ], [ 1, %22 ], [ 9, %19 ], [ 4, %15 ], [ 3, %11 ]
  %25 = load i32, ptr @hf_mysql_connattrs_name_length, align 4
  %26 = tail call ptr @proto_tree_add_uint64(ptr noundef %9, i32 noundef %25, ptr noundef %0, i32 noundef %3, i32 noundef %.025.i, i64 noundef %.0)
  %27 = add i32 %.025.i, %3
  %28 = load i32, ptr @hf_mysql_connattrs_name, align 4
  %29 = trunc i64 %.0 to i32
  %30 = getelementptr inbounds nuw i8, ptr %1, i64 408
  %31 = load ptr, ptr %30, align 8
  %32 = call ptr @proto_tree_add_item_ret_string(ptr noundef %9, i32 noundef %28, ptr noundef %0, i32 noundef %27, i32 noundef %29, i32 noundef 0, ptr noundef %31, ptr noundef nonnull %5)
  %33 = load ptr, ptr %5, align 8
  call void (ptr, ptr, ...) @proto_item_append_text(ptr noundef %7, ptr noundef nonnull @.str.1213, ptr noundef %33)
  %34 = add i32 %27, %29
  %35 = call zeroext i8 @tvb_get_uint8(ptr noundef %0, i32 noundef %34)
  switch i8 %35, label %47 [
    i8 -5, label %tvb_get_fle.exit42
    i8 -4, label %36
    i8 -3, label %40
    i8 -2, label %44
  ]

36:                                               ; preds = %tvb_get_fle.exit
  %37 = add i32 %34, 1
  %38 = call zeroext i16 @tvb_get_uint16(ptr noundef %0, i32 noundef %37, i32 noundef -2147483648)
  %39 = zext i16 %38 to i64
  br label %tvb_get_fle.exit42

40:                                               ; preds = %tvb_get_fle.exit
  %41 = add i32 %34, 1
  %42 = call i32 @tvb_get_uint24(ptr noundef %0, i32 noundef %41, i32 noundef -2147483648)
  %43 = zext i32 %42 to i64
  br label %tvb_get_fle.exit42

44:                                               ; preds = %tvb_get_fle.exit
  %45 = add i32 %34, 1
  %46 = call i64 @tvb_get_uint64(ptr noundef %0, i32 noundef %45, i32 noundef -2147483648)
  br label %tvb_get_fle.exit42

47:                                               ; preds = %tvb_get_fle.exit
  %48 = call zeroext i8 @tvb_get_uint8(ptr noundef %0, i32 noundef %34)
  %49 = zext i8 %48 to i64
  br label %tvb_get_fle.exit42

tvb_get_fle.exit42:                               ; preds = %36, %40, %44, %47, %tvb_get_fle.exit
  %.1 = phi i64 [ 0, %tvb_get_fle.exit ], [ %49, %47 ], [ %46, %44 ], [ %43, %40 ], [ %39, %36 ]
  %.025.i41 = phi i32 [ 1, %tvb_get_fle.exit ], [ 1, %47 ], [ 9, %44 ], [ 4, %40 ], [ 3, %36 ]
  %50 = load i32, ptr @hf_mysql_connattrs_value_length, align 4
  %51 = call ptr @proto_tree_add_uint64(ptr noundef %9, i32 noundef %50, ptr noundef %0, i32 noundef %34, i32 noundef %.025.i41, i64 noundef %.1)
  %52 = add i32 %.025.i41, %34
  %53 = load i32, ptr @hf_mysql_connattrs_value, align 4
  %54 = trunc i64 %.1 to i32
  %55 = load ptr, ptr %30, align 8
  %56 = call ptr @proto_tree_add_item_ret_string(ptr noundef %9, i32 noundef %53, ptr noundef %0, i32 noundef %52, i32 noundef %54, i32 noundef 0, ptr noundef %55, ptr noundef nonnull %5)
  %57 = load ptr, ptr %5, align 8
  call void (ptr, ptr, ...) @proto_item_append_text(ptr noundef %7, ptr noundef nonnull @.str.1284, ptr noundef %57)
  %58 = sub i32 %54, %3
  %59 = add i32 %58, %52
  call void @proto_item_set_len(ptr noundef %7, i32 noundef %59)
  call void @llvm.lifetime.end.p0(i64 8, ptr nonnull %5) #10
  ret i32 %59
}